target datalayout = "e-m:e-p270:32:32-p271:32:32-p272:64:64-i64:64-i128:128-f80:128-n8:16:32:64-S128"
target triple = "x86_64-pc-linux-gnu"

@proto_register_unistim.ett = internal global [1 x ptr] [ptr @ett_unistim], align 8
@.str.647 = private unnamed_addr constant [17 x i8] c"UNISTIM Protocol\00", align 1
@.str.648 = private unnamed_addr constant [8 x i8] c"UNISTIM\00", align 1
@.str.649 = private unnamed_addr constant [8 x i8] c"unistim\00", align 1
@proto_unistim = internal global i32 0, align 4
@unistim_handle = internal global ptr null, align 8
@unistim_tap = internal global i32 0, align 4

; Function Attrs: null_pointer_is_valid sspstrong uwtable
define hidden void @proto_register_unistim() #0 {
  %1 = alloca ptr, align 8
  call void @llvm.lifetime.start.p0(i64 8, ptr %1) #7
  %2 = call i32 @proto_register_protocol(ptr noundef @.str.647, ptr noundef @.str.648, ptr noundef @.str.649)
  store i32 %2, ptr @proto_unistim, align 4
  %3 = load i32, ptr @proto_unistim, align 4
  %4 = call ptr @register_dissector(ptr noundef @.str.649, ptr noundef @dissect_unistim, i32 noundef %3)
  store ptr %4, ptr @unistim_handle, align 8
  call void @proto_register_subtree_array(ptr noundef @proto_register_unistim.ett, i32 noundef 1)
  %5 = load i32, ptr @proto_unistim, align 4
  call void @proto_register_field_array(i32 noundef %5, ptr noundef @proto_register_unistim.hf, i32 noundef 325)
  %6 = load i32, ptr @proto_unistim, align 4
  %7 = call ptr @expert_register_protocol(i32 noundef %6)
  store ptr %7, ptr %1, align 8
  %8 = load ptr, ptr %1, align 8
  call void @expert_register_field_array(ptr noundef %8, ptr noundef @proto_register_unistim.ei, i32 noundef 1)
  %9 = call i32 @register_tap(ptr noundef @.str.649)
  store i32 %9, ptr @unistim_tap, align 4
  call void @llvm.lifetime.end.p0(i64 8, ptr %1) #7
  ret void
}