; Function Attrs: null_pointer_is_valid sspstrong uwtable
define hidden void @proto_register_unistim() local_unnamed_addr #0 {
  %1 = tail call i32 @proto_register_protocol(ptr noundef nonnull @.str.647, ptr noundef nonnull @.str.648, ptr noundef nonnull @.str.649)
  store i32 %1, ptr @proto_unistim, align 4
  %2 = tail call ptr @register_dissector(ptr noundef nonnull @.str.649, ptr noundef nonnull @dissect_unistim, i32 noundef %1)
  store ptr %2, ptr @unistim_handle, align 8
  tail call void @proto_register_subtree_array(ptr noundef nonnull @proto_register_unistim.ett, i32 noundef 1)
  %3 = load i32, ptr @proto_unistim, align 4
  tail call void @proto_register_field_array(i32 noundef %3, ptr noundef nonnull @proto_register_unistim.hf, i32 noundef 325)
  %4 = load i32, ptr @proto_unistim, align 4
  %5 = tail call ptr @expert_register_protocol(i32 noundef %4)
  tail call void @expert_register_field_array(ptr noundef %5, ptr noundef nonnull @proto_register_unistim.ei, i32 noundef 1)
  %6 = tail call i32 @register_tap(ptr noundef nonnull @.str.649)
  store i32 %6, ptr @unistim_tap, align 4
  ret void
}